; Function Attrs: mustprogress uwtable
define void @_ZN11RasterModelC2EjRK7QString(ptr noundef nonnull align 8 dereferenceable(168) %0, i32 noundef %1, ptr noundef nonnull readonly align 8 captures(none) dereferenceable(8) %2) unnamed_addr #10 align 2 personality ptr @__gxx_personality_v0 {
  tail call void @_ZN19MeshLabRenderRasterC2Ev(ptr noundef nonnull align 8 dereferenceable(152) %0)
  %4 = getelementptr inbounds nuw i8, ptr %0, i64 152
  store i8 1, ptr %4, align 8
  %5 = getelementptr inbounds nuw i8, ptr %0, i64 156
  store i32 %1, ptr %5, align 4
  %6 = getelementptr inbounds nuw i8, ptr %0, i64 160
  %7 = load ptr, ptr %2, align 8
  store ptr %7, ptr %6, align 8
  %8 = load atomic i32, ptr %7 monotonic, align 4
  %9 = add i32 %8, -1
  %or.cond.not.i.i = icmp ult i32 %9, -2
  br i1 %or.cond.not.i.i, label %10, label %_ZN7QStringC2ERKS_.exit

10:                                               ; preds = %3
  %11 = atomicrmw add ptr %7, i32 1 seq_cst, align 4
  br label %_ZN7QStringC2ERKS_.exit

_ZN7QStringC2ERKS_.exit:                          ; preds = %3, %10
  ret void
}